Certificate:
    Data:
        Version: 3 (0x2)
        Serial Number: 0 (0x0)
        Signature Algorithm: sha1WithRSAEncryption
        Issuer: C=JP, ST=Tokyo, O=RubyTest, CN=Ruby Test CA
        Validity
            Not Before: Jan  1 00:00:00 2009 GMT
            Not After : Dec 31 23:59:59 2049 GMT
        Subject: C=JP, ST=Tokyo, O=RubyTest, CN=Ruby Test CA
        Subject Public Key Info:
            Public Key Algorithm: rsaEncryption
            RSA Public Key: (1024 bit)
                Modulus (1024 bit):
                    00:9f:58:19:39:bc:ea:0c:b8:c3:5d:12:a7:d8:20:
                    6c:53:ac:91:34:c8:b4:db:3f:56:f6:75:b6:6c:23:
                    80:23:6a:5f:b3:f6:9a:3e:00:b4:16:19:1c:9c:2c:
                    8d:e8:53:d5:0b:f1:52:3f:7b:60:93:86:ae:89:ab:
                    20:82:9a:b6:72:14:3c:4d:a9:0b:6c:34:79:9e:d3:
                    14:82:6d:c9:3b:90:d9:5e:68:6f:8c:b5:d8:09:f4:
                    6f:3b:22:9f:5e:81:9c:37:df:cf:90:36:65:57:dc:
                    ad:31:ca:8b:48:92:a7:3c:1e:42:e9:1c:4e:1e:cb:
                    36:c1:44:4e:ab:9a:b2:73:6d
                Exponent: 65537 (0x10001)
        X509v3 extensions:
            X509v3 Basic Constraints: 
                CA:FALSE
            Netscape Comment: 
                OpenSSL Generated Certificate
            X509v3 Subject Key Identifier: 
                24:6F:03:A3:EE:06:51:75:B2:BA:FC:3A:38:59:BF:ED:87:CD:E8:7F
            X509v3 Authority Key Identifier: 
                keyid:24:6F:03:A3:EE:06:51:75:B2:BA:FC:3A:38:59:BF:ED:87:CD:E8:7F

    Signature Algorithm: sha1WithRSAEncryption
        13:eb:db:ca:cd:90:f2:09:9e:d9:72:70:5e:42:5d:11:84:ce:
        00:1d:c4:2f:41:d2:3e:16:e5:d4:97:1f:43:a9:a7:9c:fa:60:
        c4:35:96:f2:f6:0d:13:6d:0f:36:dd:59:03:08:ee:2e:a6:df:
        9e:d8:6d:ca:72:8f:02:c2:2b:53:7b:12:7f:55:81:6c:9e:7d:
        e7:40:7e:f8:f5:75:0d:4b:a0:8d:ee:a4:d9:e8:5f:06:c9:86:
        66:71:70:6c:41:81:6a:dd:a4:4f:a3:c1:ac:70:d4:78:1b:23:
        30:2f:a5:ef:98:ee:d4:62:80:fd:bf:d4:7a:9b:8e:2d:18:e5:
        00:46
-----BEGIN CERTIFICATE-----
MIICfzCCAeigAwIBAgIBADANBgkqhkiG9w0BAQUFADBHMQswCQYDVQQGEwJKUDEO
MAwGA1UECBMFVG9reW8xETAPBgNVBAoTCFJ1YnlUZXN0MRUwEwYDVQQDEwxSdWJ5
IFRlc3QgQ0EwHhcNMDkwMTAxMDAwMDAwWhcNNDkxMjMxMjM1OTU5WjBHMQswCQYD
VQQGEwJKUDEOMAwGA1UECBMFVG9reW8xETAPBgNVBAoTCFJ1YnlUZXN0MRUwEwYD
VQQDEwxSdWJ5IFRlc3QgQ0EwgZ8wDQYJKoZIhvcNAQEBBQADgY0AMIGJAoGBAJ9Y
GTm86gy4w10Sp9ggbFOskTTItNs/VvZ1tmwjgCNqX7P2mj4AtBYZHJwsjehT1Qvx
Uj97YJOGromrIIKatnIUPE2pC2w0eZ7TFIJtyTuQ2V5ob4y12An0bzsin16BnDff
z5A2ZVfcrTHKi0iSpzweQukcTh7LNsFETquasnNtAgMBAAGjezB5MAkGA1UdEwQC
MAAwLAYJYIZIAYb4QgENBB8WHU9wZW5TU0wgR2VuZXJhdGVkIENlcnRpZmljYXRl
MB0GA1UdDgQWBBQkbwOj7gZRdbK6/Do4Wb/th83ofzAfBgNVHSMEGDAWgBQkbwOj
7gZRdbK6/Do4Wb/th83ofzANBgkqhkiG9w0BAQUFAAOBgQAT69vKzZDyCZ7ZcnBe
Ql0RhM4AHcQvQdI+FuXUlx9Dqaec+mDENZby9g0TbQ823VkDCO4upt+e2G3Kco8C
witTexJ/VYFsnn3nQH749XUNS6CN7qTZ6F8GyYZmcXBsQYFq3aRPo8GscNR4GyMw
L6XvmO7UYoD9v9R6m44tGOUARg==
-----END CERTIFICATE-----