Certificate:
    Data:
        Version: 3 (0x2)
        Serial Number: 1 (0x1)
        Signature Algorithm: sha1WithRSAEncryption
        Issuer: C=JP, ST=Tokyo, O=RubyTest, CN=Ruby Test CA
        Validity
            Not Before: Jan  1 00:00:00 2009 GMT
            Not After : Dec 31 23:59:59 2049 GMT
        Subject: C=JP, ST=Tokyo, O=RubyTest, CN=127.0.0.1
        Subject Public Key Info:
            Public Key Algorithm: rsaEncryption
            RSA Public Key: (1024 bit)
                Modulus (1024 bit):
                    00:bb:bd:74:69:53:58:50:24:79:f2:eb:db:8b:97:
                    e4:69:a4:dd:48:0c:40:35:62:42:b3:35:8c:96:2a:
                    62:76:98:b5:2a:e0:f8:78:33:b6:ff:f8:55:bf:44:
                    69:21:d7:b5:0e:bd:8a:dd:31:1b:88:d5:b4:5e:7a:
                    82:e0:ba:99:6c:04:76:e9:ff:e6:f8:f5:06:8e:7e:
                    a4:db:db:eb:43:44:12:a7:ca:ca:2b:aa:5f:83:10:
                    e2:9e:35:55:e8:e8:af:be:c8:7d:bb:c2:d4:aa:c1:
                    1c:57:0b:c0:0c:3a:1d:6e:23:a9:03:26:7c:ea:8c:
                    f0:86:61:ce:f1:ff:42:c7:23
                Exponent: 65537 (0x10001)
        X509v3 extensions:
            X509v3 Basic Constraints: 
                CA:FALSE
            Netscape Cert Type: 
                SSL Server
            Netscape Comment: 
                OpenSSL Generated Certificate
            X509v3 Subject Key Identifier: 
                7F:17:5A:58:88:96:E1:1F:44:EA:FF:AD:C6:2E:90:E2:95:32:DD:F0
            X509v3 Authority Key Identifier: 
                keyid:24:6F:03:A3:EE:06:51:75:B2:BA:FC:3A:38:59:BF:ED:87:CD:E8:7F

    Signature Algorithm: sha1WithRSAEncryption
        9a:34:99:ea:76:a2:ed:f0:f7:a7:75:3b:81:fb:75:57:93:c1:
        27:b6:1e:7a:38:67:95:be:58:42:9a:0a:dd:2b:23:fb:85:42:
        80:34:bf:b9:0e:9c:5e:5a:dc:2d:25:8c:68:02:a2:c7:7f:c0:
        eb:f3:e0:61:e2:05:e5:7e:c1:e0:33:1c:76:65:23:2c:25:08:
        f6:5a:11:b9:d4:f7:e3:80:bb:b0:ce:76:1a:56:22:af:e2:4a:
        e1:7e:a4:60:f3:fd:9c:53:46:51:57:32:6b:05:53:80:5c:a5:
        61:93:87:ae:06:a8:a2:ba:4d:a1:b7:1b:0f:8f:82:0a:e8:b3:
        ea:63
-----BEGIN CERTIFICATE-----
MIICkTCCAfqgAwIBAgIBATANBgkqhkiG9w0BAQUFADBHMQswCQYDVQQGEwJKUDEO
MAwGA1UECBMFVG9reW8xETAPBgNVBAoTCFJ1YnlUZXN0MRUwEwYDVQQDEwxSdWJ5
IFRlc3QgQ0EwHhcNMDkwMTAxMDAwMDAwWhcNNDkxMjMxMjM1OTU5WjBEMQswCQYD
VQQGEwJKUDEOMAwGA1UECBMFVG9reW8xETAPBgNVBAoTCFJ1YnlUZXN0MRIwEAYD
VQQDEwkxMjcuMC4wLjEwgZ8wDQYJKoZIhvcNAQEBBQADgY0AMIGJAoGBALu9dGlT
WFAkefLr24uX5Gmk3UgMQDViQrM1jJYqYnaYtSrg+Hgztv/4Vb9EaSHXtQ69it0x
G4jVtF56guC6mWwEdun/5vj1Bo5+pNvb60NEEqfKyiuqX4MQ4p41Vejor77IfbvC
1KrBHFcLwAw6HW4jqQMmfOqM8IZhzvH/QscjAgMBAAGjgY8wgYwwCQYDVR0TBAIw
ADARBglghkgBhvhCAQEEBAMCBkAwLAYJYIZIAYb4QgENBB8WHU9wZW5TU0wgR2Vu
ZXJhdGVkIENlcnRpZmljYXRlMB0GA1UdDgQWBBR/F1pYiJbhH0Tq/63GLpDilTLd
8DAfBgNVHSMEGDAWgBQkbwOj7gZRdbK6/Do4Wb/th83ofzANBgkqhkiG9w0BAQUF
AAOBgQCaNJnqdqLt8PendTuB+3VXk8Enth56OGeVvlhCmgrdKyP7hUKANL+5Dpxe
WtwtJYxoAqLHf8Dr8+Bh4gXlfsHgMxx2ZSMsJQj2WhG51PfjgLuwznYaViKv4krh
fqRg8/2cU0ZRVzJrBVOAXKVhk4euBqiiuk2htxsPj4IK6LPqYw==
-----END CERTIFICATE-----